ccopy_reg
_reconstructor
p0
(cgoogle.oauth2.credentials
Credentials
p1
c__builtin__
object
p2
Ntp3
Rp4
(dp5
S'_token_uri'
p6
Vhttps://oauth2.googleapis.com/token
p7
sS'_client_secret'
p8
VJbY-vSye2XwyG1Vtvjp7_TpW
p9
sS'_id_token'
p10
NsS'token'
p11
Vya29.GlsQB46_4YTe4mklHDppCGfhWNN8-al9DzS_YSd6xVjQOBq3-pnEuPTjHvFs1Qfd_7MDfJqRi63KMr_eGuwORWwnvbVmiM27SG0u60SmR3RdXV3-Jup6-VukZByF
p12
sS'_refresh_token'
p13
V1/0yPH5WgrXsxf5O4wP-9DPiOaBBdo5qCltCfY8TsZe3A
p14
sS'_scopes'
p15
(lp16
S'https://www.googleapis.com/auth/calendar.readonly'
p17
asS'_client_id'
p18
V362927769299-mpbk08oi2ft1jt48m13mi4m3bvfq08f8.apps.googleusercontent.com
p19
sS'expiry'
p20
cdatetime
datetime
p21
(S'\x07\xe3\x05\x15\x0e9\x01\x0b\xffK'
p22
tp23
Rp24
sb.